libonnx.so:_Z25roiPoolTypeShapeInferenceRN4onnx16InferenceContextE
libonnx.so:_Z27convTransposeShapeInferenceRN4onnx16InferenceContextE
libonnx.so:_Z28gloablPoolTypeShapeInferenceRN4onnx16InferenceContextE
libonnx.so:_ZN4onnx10ReplaceAllERNSt7__cxx1112basic_stringIcSt11char_traitsIcESaIcEEEPKcS8_
libonnx.so:_ZN4onnx10value_nameB5cxx11EPNS_5ValueE
libonnx.so:_ZN4onnx11GetOpSchemaINS_12If_Onnx_ver1EEENS_8OpSchemaEv
libonnx.so:_ZN4onnx11GetOpSchemaINS_12Or_Onnx_ver1EEENS_8OpSchemaEv
libonnx.so:_ZN4onnx11GetOpSchemaINS_12Or_Onnx_ver7EEENS_8OpSchemaEv
libonnx.so:_ZN4onnx11GetOpSchemaINS_13Abs_Onnx_ver1EEENS_8OpSchemaEv
libonnx.so:_ZN4onnx11GetOpSchemaINS_13Abs_Onnx_ver6EEENS_8OpSchemaEv
libonnx.so:_ZN4onnx11GetOpSchemaINS_13Add_Onnx_ver1EEENS_8OpSchemaEv
libonnx.so:_ZN4onnx11GetOpSchemaINS_13Add_Onnx_ver6EEENS_8OpSchemaEv
libonnx.so:_ZN4onnx11GetOpSchemaINS_13Add_Onnx_ver7EEENS_8OpSchemaEv
libonnx.so:_ZN4onnx11GetOpSchemaINS_13And_Onnx_ver1EEENS_8OpSchemaEv
libonnx.so:_ZN4onnx11GetOpSchemaINS_13And_Onnx_ver7EEENS_8OpSchemaEv
libonnx.so:_ZN4onnx11GetOpSchemaINS_13Cos_Onnx_ver7EEENS_8OpSchemaEv
libonnx.so:_ZN4onnx11GetOpSchemaINS_13Div_Onnx_ver1EEENS_8OpSchemaEv
libonnx.so:_ZN4onnx11GetOpSchemaINS_13Div_Onnx_ver6EEENS_8OpSchemaEv
libonnx.so:_ZN4onnx11GetOpSchemaINS_13Div_Onnx_ver7EEENS_8OpSchemaEv
libonnx.so:_ZN4onnx11GetOpSchemaINS_13Elu_Onnx_ver1EEENS_8OpSchemaEv
libonnx.so:_ZN4onnx11GetOpSchemaINS_13Elu_Onnx_ver6EEENS_8OpSchemaEv
libonnx.so:_ZN4onnx11GetOpSchemaINS_13Exp_Onnx_ver1EEENS_8OpSchemaEv
libonnx.so:_ZN4onnx11GetOpSchemaINS_13Exp_Onnx_ver6EEENS_8OpSchemaEv
libonnx.so:_ZN4onnx11GetOpSchemaINS_13GRU_Onnx_ver1EEENS_8OpSchemaEv
libonnx.so:_ZN4onnx11GetOpSchemaINS_13GRU_Onnx_ver3EEENS_8OpSchemaEv
libonnx.so:_ZN4onnx11GetOpSchemaINS_13GRU_Onnx_ver7EEENS_8OpSchemaEv
libonnx.so:_ZN4onnx11GetOpSchemaINS_13LRN_Onnx_ver1EEENS_8OpSchemaEv
libonnx.so:_ZN4onnx11GetOpSchemaINS_13Log_Onnx_ver1EEENS_8OpSchemaEv
libonnx.so:_ZN4onnx11GetOpSchemaINS_13Log_Onnx_ver6EEENS_8OpSchemaEv
libonnx.so:_ZN4onnx11GetOpSchemaINS_13Max_Onnx_ver1EEENS_8OpSchemaEv
libonnx.so:_ZN4onnx11GetOpSchemaINS_13Max_Onnx_ver6EEENS_8OpSchemaEv
libonnx.so:_ZN4onnx11GetOpSchemaINS_13Max_Onnx_ver8EEENS_8OpSchemaEv
libonnx.so:_ZN4onnx11GetOpSchemaINS_13Min_Onnx_ver1EEENS_8OpSchemaEv
libonnx.so:_ZN4onnx11GetOpSchemaINS_13Min_Onnx_ver6EEENS_8OpSchemaEv
libonnx.so:_ZN4onnx11GetOpSchemaINS_13Min_Onnx_ver8EEENS_8OpSchemaEv
libonnx.so:_ZN4onnx11GetOpSchemaINS_13Mul_Onnx_ver1EEENS_8OpSchemaEv
libonnx.so:_ZN4onnx11GetOpSchemaINS_13Mul_Onnx_ver6EEENS_8OpSchemaEv
libonnx.so:_ZN4onnx11GetOpSchemaINS_13Mul_Onnx_ver7EEENS_8OpSchemaEv
libonnx.so:_ZN4onnx11GetOpSchemaINS_13Neg_Onnx_ver1EEENS_8OpSchemaEv
libonnx.so:_ZN4onnx11GetOpSchemaINS_13Neg_Onnx_ver6EEENS_8OpSchemaEv
libonnx.so:_ZN4onnx11GetOpSchemaINS_13Not_Onnx_ver1EEENS_8OpSchemaEv
libonnx.so:_ZN4onnx11GetOpSchemaINS_13Pad_Onnx_ver1EEENS_8OpSchemaEv
libonnx.so:_ZN4onnx11GetOpSchemaINS_13Pad_Onnx_ver2EEENS_8OpSchemaEv
libonnx.so:_ZN4onnx11GetOpSchemaINS_13Pow_Onnx_ver1EEENS_8OpSchemaEv
libonnx.so:_ZN4onnx11GetOpSchemaINS_13Pow_Onnx_ver7EEENS_8OpSchemaEv
libonnx.so:_ZN4onnx11GetOpSchemaINS_13RNN_Onnx_ver1EEENS_8OpSchemaEv
libonnx.so:_ZN4onnx11GetOpSchemaINS_13RNN_Onnx_ver7EEENS_8OpSchemaEv
libonnx.so:_ZN4onnx11GetOpSchemaINS_13Sin_Onnx_ver7EEENS_8OpSchemaEv
libonnx.so:_ZN4onnx11GetOpSchemaINS_13Sub_Onnx_ver1EEENS_8OpSchemaEv
libonnx.so:_ZN4onnx11GetOpSchemaINS_13Sub_Onnx_ver6EEENS_8OpSchemaEv
libonnx.so:_ZN4onnx11GetOpSchemaINS_13Sub_Onnx_ver7EEENS_8OpSchemaEv
libonnx.so:_ZN4onnx11GetOpSchemaINS_13Sum_Onnx_ver1EEENS_8OpSchemaEv
libonnx.so:_ZN4onnx11GetOpSchemaINS_13Sum_Onnx_ver6EEENS_8OpSchemaEv
libonnx.so:_ZN4onnx11GetOpSchemaINS_13Sum_Onnx_ver8EEENS_8OpSchemaEv
libonnx.so:_ZN4onnx11GetOpSchemaINS_13Tan_Onnx_ver7EEENS_8OpSchemaEv
libonnx.so:_ZN4onnx11GetOpSchemaINS_13Xor_Onnx_ver1EEENS_8OpSchemaEv
libonnx.so:_ZN4onnx11GetOpSchemaINS_13Xor_Onnx_ver7EEENS_8OpSchemaEv
libonnx.so:_ZN4onnx11GetOpSchemaINS_14ATen_Onnx_ver1EEENS_8OpSchemaEv
libonnx.so:_ZN4onnx11GetOpSchemaINS_14Acos_Onnx_ver7EEENS_8OpSchemaEv
libonnx.so:_ZN4onnx11GetOpSchemaINS_14Asin_Onnx_ver7EEENS_8OpSchemaEv
libonnx.so:_ZN4onnx11GetOpSchemaINS_14Atan_Onnx_ver7EEENS_8OpSchemaEv
libonnx.so:_ZN4onnx11GetOpSchemaINS_14Cast_Onnx_ver1EEENS_8OpSchemaEv
libonnx.so:_ZN4onnx11GetOpSchemaINS_14Cast_Onnx_ver6EEENS_8OpSchemaEv
libonnx.so:_ZN4onnx11GetOpSchemaINS_14Ceil_Onnx_ver1EEENS_8OpSchemaEv
libonnx.so:_ZN4onnx11GetOpSchemaINS_14Ceil_Onnx_ver6EEENS_8OpSchemaEv
libonnx.so:_ZN4onnx11GetOpSchemaINS_14Clip_Onnx_ver1EEENS_8OpSchemaEv
libonnx.so:_ZN4onnx11GetOpSchemaINS_14Clip_Onnx_ver6EEENS_8OpSchemaEv
libonnx.so:_ZN4onnx11GetOpSchemaINS_14Conv_Onnx_ver1EEENS_8OpSchemaEv
libonnx.so:_ZN4onnx11GetOpSchemaINS_14Crop_Onnx_ver1EEENS_8OpSchemaEv
libonnx.so:_ZN4onnx11GetOpSchemaINS_14Gemm_Onnx_ver1EEENS_8OpSchemaEv
libonnx.so:_ZN4onnx11GetOpSchemaINS_14Gemm_Onnx_ver6EEENS_8OpSchemaEv
libonnx.so:_ZN4onnx11GetOpSchemaINS_14Gemm_Onnx_ver7EEENS_8OpSchemaEv
libonnx.so:_ZN4onnx11GetOpSchemaINS_14LSTM_Onnx_ver1EEENS_8OpSchemaEv
libonnx.so:_ZN4onnx11GetOpSchemaINS_14LSTM_Onnx_ver7EEENS_8OpSchemaEv
libonnx.so:_ZN4onnx11GetOpSchemaINS_14Less_Onnx_ver1EEENS_8OpSchemaEv
libonnx.so:_ZN4onnx11GetOpSchemaINS_14Less_Onnx_ver7EEENS_8OpSchemaEv
libonnx.so:_ZN4onnx11GetOpSchemaINS_14Loop_Onnx_ver1EEENS_8OpSchemaEv
libonnx.so:_ZN4onnx11GetOpSchemaINS_14Mean_Onnx_ver1EEENS_8OpSchemaEv
libonnx.so:_ZN4onnx11GetOpSchemaINS_14Mean_Onnx_ver6EEENS_8OpSchemaEv
libonnx.so:_ZN4onnx11GetOpSchemaINS_14Mean_Onnx_ver8EEENS_8OpSchemaEv
libonnx.so:_ZN4onnx11GetOpSchemaINS_14Relu_Onnx_ver1EEENS_8OpSchemaEv
libonnx.so:_ZN4onnx11GetOpSchemaINS_14Relu_Onnx_ver6EEENS_8OpSchemaEv
libonnx.so:_ZN4onnx11GetOpSchemaINS_14Scan_Onnx_ver8EEENS_8OpSchemaEv
libonnx.so:_ZN4onnx11GetOpSchemaINS_14Selu_Onnx_ver1EEENS_8OpSchemaEv
libonnx.so:_ZN4onnx11GetOpSchemaINS_14Selu_Onnx_ver6EEENS_8OpSchemaEv
libonnx.so:_ZN4onnx11GetOpSchemaINS_14Size_Onnx_ver1EEENS_8OpSchemaEv
libonnx.so:_ZN4onnx11GetOpSchemaINS_14Sqrt_Onnx_ver1EEENS_8OpSchemaEv
libonnx.so:_ZN4onnx11GetOpSchemaINS_14Sqrt_Onnx_ver6EEENS_8OpSchemaEv
libonnx.so:_ZN4onnx11GetOpSchemaINS_14Tanh_Onnx_ver1EEENS_8OpSchemaEv
libonnx.so:_ZN4onnx11GetOpSchemaINS_14Tanh_Onnx_ver6EEENS_8OpSchemaEv
libonnx.so:_ZN4onnx11GetOpSchemaINS_14Tile_Onnx_ver1EEENS_8OpSchemaEv
libonnx.so:_ZN4onnx11GetOpSchemaINS_14Tile_Onnx_ver6EEENS_8OpSchemaEv
libonnx.so:_ZN4onnx11GetOpSchemaINS_14TopK_Onnx_ver1EEENS_8OpSchemaEv
libonnx.so:_ZN4onnx11GetOpSchemaINS_15Equal_Onnx_ver1EEENS_8OpSchemaEv
libonnx.so:_ZN4onnx11GetOpSchemaINS_15Equal_Onnx_ver7EEENS_8OpSchemaEv
libonnx.so:_ZN4onnx11GetOpSchemaINS_15Floor_Onnx_ver1EEENS_8OpSchemaEv
libonnx.so:_ZN4onnx11GetOpSchemaINS_15Floor_Onnx_ver6EEENS_8OpSchemaEv
libonnx.so:_ZN4onnx11GetOpSchemaINS_15PRelu_Onnx_ver1EEENS_8OpSchemaEv
libonnx.so:_ZN4onnx11GetOpSchemaINS_15PRelu_Onnx_ver6EEENS_8OpSchemaEv
libonnx.so:_ZN4onnx11GetOpSchemaINS_15PRelu_Onnx_ver7EEENS_8OpSchemaEv
libonnx.so:_ZN4onnx11GetOpSchemaINS_15Scale_Onnx_ver1EEENS_8OpSchemaEv
libonnx.so:_ZN4onnx11GetOpSchemaINS_15Shape_Onnx_ver1EEENS_8OpSchemaEv
libonnx.so:_ZN4onnx11GetOpSchemaINS_15Slice_Onnx_ver1EEENS_8OpSchemaEv
libonnx.so:_ZN4onnx11GetOpSchemaINS_15Split_Onnx_ver1EEENS_8OpSchemaEv
libonnx.so:_ZN4onnx11GetOpSchemaINS_15Split_Onnx_ver2EEENS_8OpSchemaEv
libonnx.so:_ZN4onnx11GetOpSchemaINS_16Affine_Onnx_ver1EEENS_8OpSchemaEv
libonnx.so:_ZN4onnx11GetOpSchemaINS_16ArgMax_Onnx_ver1EEENS_8OpSchemaEv
libonnx.so:_ZN4onnx11GetOpSchemaINS_16ArgMin_Onnx_ver1EEENS_8OpSchemaEv
libonnx.so:_ZN4onnx11GetOpSchemaINS_16Concat_Onnx_ver1EEENS_8OpSchemaEv
libonnx.so:_ZN4onnx11GetOpSchemaINS_16Concat_Onnx_ver4EEENS_8OpSchemaEv
libonnx.so:_ZN4onnx11GetOpSchemaINS_16Expand_Onnx_ver8EEENS_8OpSchemaEv
libonnx.so:_ZN4onnx11GetOpSchemaINS_16Gather_Onnx_ver1EEENS_8OpSchemaEv
libonnx.so:_ZN4onnx11GetOpSchemaINS_16LpPool_Onnx_ver1EEENS_8OpSchemaEv
libonnx.so:_ZN4onnx11GetOpSchemaINS_16LpPool_Onnx_ver2EEENS_8OpSchemaEv
libonnx.so:_ZN4onnx11GetOpSchemaINS_16MatMul_Onnx_ver1EEENS_8OpSchemaEv
libonnx.so:_ZN4onnx11GetOpSchemaINS_17Dropout_Onnx_ver1EEENS_8OpSchemaEv
libonnx.so:_ZN4onnx11GetOpSchemaINS_17Dropout_Onnx_ver6EEENS_8OpSchemaEv
libonnx.so:_ZN4onnx11GetOpSchemaINS_17Dropout_Onnx_ver7EEENS_8OpSchemaEv
libonnx.so:_ZN4onnx11GetOpSchemaINS_17Flatten_Onnx_ver1EEENS_8OpSchemaEv
libonnx.so:_ZN4onnx11GetOpSchemaINS_17GRUUnit_Onnx_ver1EEENS_8OpSchemaEv
libonnx.so:_ZN4onnx11GetOpSchemaINS_17Greater_Onnx_ver1EEENS_8OpSchemaEv
libonnx.so:_ZN4onnx11GetOpSchemaINS_17Greater_Onnx_ver7EEENS_8OpSchemaEv
libonnx.so:_ZN4onnx11GetOpSchemaINS_17Hardmax_Onnx_ver1EEENS_8OpSchemaEv
libonnx.so:_ZN4onnx11GetOpSchemaINS_17MaxPool_Onnx_ver1EEENS_8OpSchemaEv
libonnx.so:_ZN4onnx11GetOpSchemaINS_17MaxPool_Onnx_ver8EEENS_8OpSchemaEv
libonnx.so:_ZN4onnx11GetOpSchemaINS_17Reshape_Onnx_ver1EEENS_8OpSchemaEv
libonnx.so:_ZN4onnx11GetOpSchemaINS_17Reshape_Onnx_ver5EEENS_8OpSchemaEv
libonnx.so:_ZN4onnx11GetOpSchemaINS_17Sigmoid_Onnx_ver1EEENS_8OpSchemaEv
libonnx.so:_ZN4onnx11GetOpSchemaINS_17Sigmoid_Onnx_ver6EEENS_8OpSchemaEv
libonnx.so:_ZN4onnx11GetOpSchemaINS_17Softmax_Onnx_ver1EEENS_8OpSchemaEv
libonnx.so:_ZN4onnx11GetOpSchemaINS_17Squeeze_Onnx_ver1EEENS_8OpSchemaEv
libonnx.so:_ZN4onnx11GetOpSchemaINS_18Constant_Onnx_ver1EEENS_8OpSchemaEv
libonnx.so:_ZN4onnx11GetOpSchemaINS_18Identity_Onnx_ver1EEENS_8OpSchemaEv
libonnx.so:_ZN4onnx11GetOpSchemaINS_18ReduceL1_Onnx_ver1EEENS_8OpSchemaEv
libonnx.so:_ZN4onnx11GetOpSchemaINS_18ReduceL2_Onnx_ver1EEENS_8OpSchemaEv
libonnx.so:_ZN4onnx11GetOpSchemaINS_18Softplus_Onnx_ver1EEENS_8OpSchemaEv
libonnx.so:_ZN4onnx11GetOpSchemaINS_18Softsign_Onnx_ver1EEENS_8OpSchemaEv
libonnx.so:_ZN4onnx11GetOpSchemaINS_18Upsample_Onnx_ver1EEENS_8OpSchemaEv
libonnx.so:_ZN4onnx11GetOpSchemaINS_18Upsample_Onnx_ver7EEENS_8OpSchemaEv
libonnx.so:_ZN4onnx11GetOpSchemaINS_19LeakyRelu_Onnx_ver1EEENS_8OpSchemaEv
libonnx.so:_ZN4onnx11GetOpSchemaINS_19LeakyRelu_Onnx_ver6EEENS_8OpSchemaEv
libonnx.so:_ZN4onnx11GetOpSchemaINS_19ReduceMax_Onnx_ver1EEENS_8OpSchemaEv
libonnx.so:_ZN4onnx11GetOpSchemaINS_19ReduceMin_Onnx_ver1EEENS_8OpSchemaEv
libonnx.so:_ZN4onnx11GetOpSchemaINS_19ReduceSum_Onnx_ver1EEENS_8OpSchemaEv
libonnx.so:_ZN4onnx11GetOpSchemaINS_19Transpose_Onnx_ver1EEENS_8OpSchemaEv
libonnx.so:_ZN4onnx11GetOpSchemaINS_19Unsqueeze_Onnx_ver1EEENS_8OpSchemaEv
libonnx.so:_ZN4onnx11GetOpSchemaINS_20LogSoftmax_Onnx_ver1EEENS_8OpSchemaEv
libonnx.so:_ZN4onnx11GetOpSchemaINS_20MaxRoiPool_Onnx_ver1EEENS_8OpSchemaEv
libonnx.so:_ZN4onnx11GetOpSchemaINS_20Reciprocal_Onnx_ver1EEENS_8OpSchemaEv
libonnx.so:_ZN4onnx11GetOpSchemaINS_20Reciprocal_Onnx_ver6EEENS_8OpSchemaEv
libonnx.so:_ZN4onnx11GetOpSchemaINS_20ReduceMean_Onnx_ver1EEENS_8OpSchemaEv
libonnx.so:_ZN4onnx11GetOpSchemaINS_20ReduceProd_Onnx_ver1EEENS_8OpSchemaEv
libonnx.so:_ZN4onnx11GetOpSchemaINS_20ScaledTanh_Onnx_ver1EEENS_8OpSchemaEv
libonnx.so:_ZN4onnx11GetOpSchemaINS_21AveragePool_Onnx_ver1EEENS_8OpSchemaEv
libonnx.so:_ZN4onnx11GetOpSchemaINS_21AveragePool_Onnx_ver7EEENS_8OpSchemaEv
libonnx.so:_ZN4onnx11GetOpSchemaINS_21HardSigmoid_Onnx_ver1EEENS_8OpSchemaEv
libonnx.so:_ZN4onnx11GetOpSchemaINS_21HardSigmoid_Onnx_ver6EEENS_8OpSchemaEv
libonnx.so:_ZN4onnx11GetOpSchemaINS_21ImageScaler_Onnx_ver1EEENS_8OpSchemaEv
libonnx.so:_ZN4onnx11GetOpSchemaINS_21Multinomial_Onnx_ver7EEENS_8OpSchemaEv
libonnx.so:_ZN4onnx11GetOpSchemaINS_22ConstantFill_Onnx_ver1EEENS_8OpSchemaEv
libonnx.so:_ZN4onnx11GetOpSchemaINS_22DepthToSpace_Onnx_ver1EEENS_8OpSchemaEv
libonnx.so:_ZN4onnx11GetOpSchemaINS_22GlobalLpPool_Onnx_ver1EEENS_8OpSchemaEv
libonnx.so:_ZN4onnx11GetOpSchemaINS_22GlobalLpPool_Onnx_ver2EEENS_8OpSchemaEv
libonnx.so:_ZN4onnx11GetOpSchemaINS_22RandomNormal_Onnx_ver1EEENS_8OpSchemaEv
libonnx.so:_ZN4onnx11GetOpSchemaINS_22ReduceLogSum_Onnx_ver1EEENS_8OpSchemaEv
libonnx.so:_ZN4onnx11GetOpSchemaINS_22SpaceToDepth_Onnx_ver1EEENS_8OpSchemaEv
libonnx.so:_ZN4onnx11GetOpSchemaINS_23ConvTranspose_Onnx_ver1EEENS_8OpSchemaEv
libonnx.so:_ZN4onnx11GetOpSchemaINS_23GlobalMaxPool_Onnx_ver1EEENS_8OpSchemaEv
libonnx.so:_ZN4onnx11GetOpSchemaINS_23RandomUniform_Onnx_ver1EEENS_8OpSchemaEv
libonnx.so:_ZN4onnx11GetOpSchemaINS_25GivenTensorFill_Onnx_ver1EEENS_8OpSchemaEv
libonnx.so:_ZN4onnx11GetOpSchemaINS_25LpNormalization_Onnx_ver1EEENS_8OpSchemaEv
libonnx.so:_ZN4onnx11GetOpSchemaINS_25ReduceLogSumExp_Onnx_ver1EEENS_8OpSchemaEv
libonnx.so:_ZN4onnx11GetOpSchemaINS_25ReduceSumSquare_Onnx_ver1EEENS_8OpSchemaEv
libonnx.so:_ZN4onnx11GetOpSchemaINS_25ThresholdedRelu_Onnx_ver1EEENS_8OpSchemaEv
libonnx.so:_ZN4onnx11GetOpSchemaINS_26RandomNormalLike_Onnx_ver1EEENS_8OpSchemaEv
libonnx.so:_ZN4onnx11GetOpSchemaINS_27GlobalAveragePool_Onnx_ver1EEENS_8OpSchemaEv
libonnx.so:_ZN4onnx11GetOpSchemaINS_27RandomUniformLike_Onnx_ver1EEENS_8OpSchemaEv
libonnx.so:_ZN4onnx11GetOpSchemaINS_28BatchNormalization_Onnx_ver1EEENS_8OpSchemaEv
libonnx.so:_ZN4onnx11GetOpSchemaINS_28BatchNormalization_Onnx_ver6EEENS_8OpSchemaEv
libonnx.so:_ZN4onnx11GetOpSchemaINS_28BatchNormalization_Onnx_ver7EEENS_8OpSchemaEv
libonnx.so:_ZN4onnx11GetOpSchemaINS_28ParametricSoftplus_Onnx_ver1EEENS_8OpSchemaEv
libonnx.so:_ZN4onnx11GetOpSchemaINS_31InstanceNormalization_Onnx_ver1EEENS_8OpSchemaEv
libonnx.so:_ZN4onnx11GetOpSchemaINS_31InstanceNormalization_Onnx_ver6EEENS_8OpSchemaEv
libonnx.so:_ZN4onnx11GetOpSchemaINS_35MeanVarianceNormalization_Onnx_ver1EEENS_8OpSchemaEv
libonnx.so:_ZN4onnx11encodeGraphEPNS_10GraphProtoERKSt10shared_ptrINS_5GraphEE
libonnx.so:_ZN4onnx12addAttributeEPNS_9NodeProtoEPNS_4NodeENS_6SymbolE
libonnx.so:_ZN4onnx12encodeTensorEPNS_11TensorProtoERKNS_6TensorE
libonnx.so:_ZN4onnx12optimization18GetAvailablePassesB5cxx11Ev
libonnx.so:_ZN4onnx12optimization8OptimizeERKNS_10ModelProtoERKSt6vectorINSt7__cxx1112basic_stringIcSt11char_traitsIcESaIcEEESaISA_EE
libonnx.so:_ZN4onnx13PrepareOutputERKNS_10ModelProtoE
libonnx.so:_ZN4onnx13assertNonNullESt10shared_ptrINS_5GraphEE
libonnx.so:_ZN4onnx14RegisterSchemaEONS_8OpSchemaE
libonnx.so:_ZN4onnx15FunctionBuilder16SetBuildFunctionEPFNS_6Common6StatusEPSt10unique_ptrINS_13FunctionProtoESt14default_deleteIS4_EEE
libonnx.so:_ZN4onnx15FunctionBuilder9SetDomainERKNSt7__cxx1112basic_stringIcSt11char_traitsIcESaIcEEE
libonnx.so:_ZN4onnx15RNNDocGeneratorEPKc
libonnx.so:_ZN4onnx15encodeValueInfoEPNS_14ValueInfoProtoEPNS_5ValueE
libonnx.so:_ZN4onnx15shape_inference11InferShapesERNS_10ModelProtoEPKNS_15ISchemaRegistryE
libonnx.so:_ZN4onnx15shape_inference19checkShapesAndTypesERKNS_16TypeProto_TensorES3_
libonnx.so:_ZN4onnx15shape_inference19mergeShapesAndTypesERKNS_16TypeProto_TensorEPS1_
libonnx.so:_ZN4onnx16ExportModelProtoEPNS_10ModelProtoERKSt10shared_ptrINS_5GraphEE
libonnx.so:_ZN4onnx16ImportModelProtoERKNS_10ModelProtoE
libonnx.so:_ZN4onnx16MathDocGeneratorEPKc
libonnx.so:_ZN4onnx16OpSchemaRegistry33GetMapWithoutEnsuringRegistrationB5cxx11Ev
libonnx.so:_ZN4onnx16OpSchemaRegistry3mapB5cxx11Ev
libonnx.so:_ZN4onnx16OpSchemaRegistry8InstanceEv
libonnx.so:_ZN4onnx16RNNDocGenerator1EPKc
libonnx.so:_ZN4onnx16convertAttributeERKNS_14AttributeProtoEPNS_4NodeE
libonnx.so:_ZN4onnx17RNNShapeInferenceERNS_16InferenceContextE
libonnx.so:_ZN4onnx17convertAttributesERNS_9NodeProtoEPNS_4NodeE
libonnx.so:_ZN4onnx17graphProtoToGraphERKNS_10GraphProtoEb
libonnx.so:_ZN4onnx18RNNDocGeneratorOldEPKc
libonnx.so:_ZN4onnx18RNNShapeInference1ERNS_16InferenceContextE
libonnx.so:_ZN4onnx18ReduceDocGeneratorEPKc
libonnx.so:_ZN4onnx18throw_assert_errorERNSt7__cxx1112basic_stringIcSt11char_traitsIcESaIcEEE
libonnx.so:_ZN4onnx18throw_tensor_errorERNSt7__cxx1112basic_stringIcSt11char_traitsIcESaIcEEE
libonnx.so:_ZN4onnx18version_conversion14ConvertVersionERKNS_10ModelProtoEi
libonnx.so:_ZN4onnx18version_conversion15assertNotParamsERKSt6vectorINS_9DimensionESaIS2_EE
libonnx.so:_ZN4onnx18version_conversion21assertInputsAvailableERKNS_8ArrayRefIPNS_5ValueEEEPKcm
libonnx.so:_ZN4onnx18version_conversion31assert_numpy_multibroadcastableERKSt6vectorINS_9DimensionESaIS2_EES6_
libonnx.so:_ZN4onnx18version_conversion50check_numpy_unibroadcastable_and_require_broadcastERKSt6vectorINS_9DimensionESaIS2_EES6_
libonnx.so:_ZN4onnx19tensorProtoToTensorERKNS_11TensorProtoE
libonnx.so:_ZN4onnx20MathDocGenerator_oldEPKc
libonnx.so:_ZN4onnx21ArgReduceDocGeneratorEPKc
libonnx.so:_ZN4onnx21ConvOpSchemaGeneratorEPKc
libonnx.so:_ZN4onnx21PoolOpSchemaGeneratorEPKcS1_S1_
libonnx.so:_ZN4onnx23BinaryLogicDocGeneratorEPKc
libonnx.so:_ZN4onnx23FunctionBuilderRegistry12OnnxInstanceEv
libonnx.so:_ZN4onnx23FunctionBuilderRegistry8RegisterERKNS_15FunctionBuilderE
libonnx.so:_ZN4onnx23LpPoolOpSchemaGeneratorEPKc
libonnx.so:_ZN4onnx24RoiPoolOpSchemaGeneratorEPKc
libonnx.so:_ZN4onnx25SoftmaxFamilyDocGeneratorEPKcS1_
libonnx.so:_ZN4onnx25encodeTypeProtoTensorTypeEPNS_16TypeProto_TensorEPNS_5ValueE
libonnx.so:_ZN4onnx27MathDocGenerator_old_opset6EPKc
libonnx.so:_ZN4onnx28tensorShapeProtoToDimensionsERKNS_16TensorShapeProtoE
libonnx.so:_ZN4onnx29convPoolTypeAndShapeInferenceERNS_16InferenceContextEbb
libonnx.so:_ZN4onnx30BinaryLogicDocGenerator_opset1EPKc
libonnx.so:_ZN4onnx30ConvTransposeOpSchemaGeneratorEPKc
libonnx.so:_ZN4onnx30ElementwiseMultiOpDocGeneratorEPKc
libonnx.so:_ZN4onnx30GlobalPoolingOpSchemaGeneratorEPKcS1_
libonnx.so:_ZN4onnx32GlobalLpPoolingOpSchemaGeneratorEPKcS1_
libonnx.so:_ZN4onnx4barfB5cxx11EPKcz
libonnx.so:_ZN4onnx5Utils11StringRange10LAndRStripEv
libonnx.so:_ZN4onnx5Utils11StringRange11GetCapturedEv
libonnx.so:_ZN4onnx5Utils11StringRange14RestartCaptureEv
libonnx.so:_ZN4onnx5Utils11StringRange21ParensWhitespaceStripEv
libonnx.so:_ZN4onnx5Utils11StringRange5ResetEPKcm
libonnx.so:_ZN4onnx5Utils11StringRange5ResetERKNSt7__cxx1112basic_stringIcSt11char_traitsIcESaIcEEE
libonnx.so:_ZN4onnx5Utils11StringRange5ResetEv
libonnx.so:_ZN4onnx5Utils11StringRange6LStripES1_
libonnx.so:_ZN4onnx5Utils11StringRange6LStripEm
libonnx.so:_ZN4onnx5Utils11StringRange6LStripEv
libonnx.so:_ZN4onnx5Utils11StringRange6RStripES1_
libonnx.so:_ZN4onnx5Utils11StringRange6RStripEm
libonnx.so:_ZN4onnx5Utils11StringRange6RStripEv
libonnx.so:_ZN4onnx5Utils11StringRangeC1EPKc
libonnx.so:_ZN4onnx5Utils11StringRangeC1EPKcm
libonnx.so:_ZN4onnx5Utils11StringRangeC1ERKNSt7__cxx1112basic_stringIcSt11char_traitsIcESaIcEEE
libonnx.so:_ZN4onnx5Utils11StringRangeC1Ev
libonnx.so:_ZN4onnx5Utils11StringRangeC2EPKc
libonnx.so:_ZN4onnx5Utils11StringRangeC2EPKcm
libonnx.so:_ZN4onnx5Utils11StringRangeC2ERKNSt7__cxx1112basic_stringIcSt11char_traitsIcESaIcEEE
libonnx.so:_ZN4onnx5Utils11StringRangeC2Ev
libonnx.so:_ZN4onnx5Utils12TypesWrapper15GetTypesWrapperEv
libonnx.so:_ZN4onnx5Utils12TypesWrapper19GetAllowedDataTypesB5cxx11Ev
libonnx.so:_ZN4onnx5Utils12TypesWrapper23TensorDataTypeToTypeStrB5cxx11Ev
libonnx.so:_ZN4onnx5Utils12TypesWrapper23TypeStrToTensorDataTypeB5cxx11Ev
libonnx.so:_ZN4onnx5Utils12TypesWrapperC1Ev
libonnx.so:_ZN4onnx5Utils12TypesWrapperC2Ev
libonnx.so:_ZN4onnx5Utils13DataTypeUtils10FromStringERKNSt7__cxx1112basic_stringIcSt11char_traitsIcESaIcEEERNS_9TypeProtoE
libonnx.so:_ZN4onnx5Utils13DataTypeUtils11ToTypeProtoERKPKNSt7__cxx1112basic_stringIcSt11char_traitsIcESaIcEEE
libonnx.so:_ZN4onnx5Utils13DataTypeUtils14GetTypeStrLockEv
libonnx.so:_ZN4onnx5Utils13DataTypeUtils16ToDataTypeStringB5cxx11ERKNS_20TensorProto_DataTypeE
libonnx.so:_ZN4onnx5Utils13DataTypeUtils18FromDataTypeStringERKNSt7__cxx1112basic_stringIcSt11char_traitsIcESaIcEEERNS_20TensorProto_DataTypeE
libonnx.so:_ZN4onnx5Utils13DataTypeUtils20GetTypeStrToProtoMapB5cxx11Ev
libonnx.so:_ZN4onnx5Utils13DataTypeUtils21IsValidDataTypeStringERKNSt7__cxx1112basic_stringIcSt11char_traitsIcESaIcEEE
libonnx.so:_ZN4onnx5Utils13DataTypeUtils6ToTypeB5cxx11ERKNS_9TypeProtoE
libonnx.so:_ZN4onnx5Utils13DataTypeUtils6ToTypeERKNSt7__cxx1112basic_stringIcSt11char_traitsIcESaIcEEE
libonnx.so:_ZN4onnx5Utils13DataTypeUtils8ToStringERKNS_9TypeProtoERKNSt7__cxx1112basic_stringIcSt11char_traitsIcESaIcEEESC_
libonnx.so:_ZN4onnx6Common6Status11EmptyStringB5cxx11Ev
libonnx.so:_ZN4onnx6Common6Status2OKEv
libonnx.so:_ZN4onnx6Common6StatusC1ENS0_14StatusCategoryEi
libonnx.so:_ZN4onnx6Common6StatusC1ENS0_14StatusCategoryEiRKNSt7__cxx1112basic_stringIcSt11char_traitsIcESaIcEEE
libonnx.so:_ZN4onnx6Common6StatusC2ENS0_14StatusCategoryEi
libonnx.so:_ZN4onnx6Common6StatusC2ENS0_14StatusCategoryEiRKNSt7__cxx1112basic_stringIcSt11char_traitsIcESaIcEEE
libonnx.so:_ZN4onnx6SymbolC1ERKNSt7__cxx1112basic_stringIcSt11char_traitsIcESaIcEEE
libonnx.so:_ZN4onnx6SymbolC2ERKNSt7__cxx1112basic_stringIcSt11char_traitsIcESaIcEEE
libonnx.so:_ZN4onnx7checker10check_nodeERKNS_9NodeProtoERKNS0_14CheckerContextERKNS0_19LexicalScopeContextE
libonnx.so:_ZN4onnx7checker11check_graphERKNS_10GraphProtoERKNS0_14CheckerContextERKNS0_19LexicalScopeContextE
libonnx.so:_ZN4onnx7checker11check_modelERKNS_10ModelProtoE
libonnx.so:_ZN4onnx7checker12check_tensorERKNS_11TensorProtoERKNS0_14CheckerContextE
libonnx.so:_ZN4onnx7checker14check_functionERKNS_13FunctionProtoERKNS0_14CheckerContextERKNS0_19LexicalScopeContextE
libonnx.so:_ZN4onnx7checker15check_attributeERKNS_14AttributeProtoERKNS0_14CheckerContextERKNS0_19LexicalScopeContextE
libonnx.so:_ZN4onnx7checker16check_value_infoERKNS_14ValueInfoProtoERKNS0_14CheckerContextE
libonnx.so:_ZN4onnx8OpSchema10NumOutputsESt3setIiSt4lessIiESaIiEE
libonnx.so:_ZN4onnx8OpSchema11SetLocationENSt7__cxx1112basic_stringIcSt11char_traitsIcESaIcEEEi
libonnx.so:_ZN4onnx8OpSchema11SetLocationEPKci
libonnx.so:_ZN4onnx8OpSchema12SinceVersionEi
libonnx.so:_ZN4onnx8OpSchema14TypeConstraintENSt7__cxx1112basic_stringIcSt11char_traitsIcESaIcEEESt6vectorIS6_SaIS6_EES6_
libonnx.so:_ZN4onnx8OpSchema14TypeConstraintEPKcSt16initializer_listIS2_ES2_
libonnx.so:_ZN4onnx8OpSchema15FormalParameter12MutableTypesB5cxx11Ev
libonnx.so:_ZN4onnx8OpSchema15FormalParameterC1ENSt7__cxx1112basic_stringIcSt11char_traitsIcESaIcEEES7_S7_NS0_21FormalParameterOptionE
libonnx.so:_ZN4onnx8OpSchema15FormalParameterC1ENSt7__cxx1112basic_stringIcSt11char_traitsIcESaIcEEESt13unordered_setIPKS7_St4hashISA_ESt8equal_toISA_ESaISA_EES7_S7_NS0_21FormalParameterOptionE
libonnx.so:_ZN4onnx8OpSchema15FormalParameterC2ENSt7__cxx1112basic_stringIcSt11char_traitsIcESaIcEEES7_S7_NS0_21FormalParameterOptionE
libonnx.so:_ZN4onnx8OpSchema15FormalParameterC2ENSt7__cxx1112basic_stringIcSt11char_traitsIcESaIcEEESt13unordered_setIPKS7_St4hashISA_ESt8equal_toISA_ESaISA_EES7_S7_NS0_21FormalParameterOptionE
libonnx.so:_ZN4onnx8OpSchema15SetSupportLevelENS0_11SupportTypeE
libonnx.so:_ZN4onnx8OpSchema16ParseAndSetTypesEPSt6vectorINS0_15FormalParameterESaIS2_EE
libonnx.so:_ZN4onnx8OpSchema24AllowUncheckedAttributesEv
libonnx.so:_ZN4onnx8OpSchema29TypeAndShapeInferenceFunctionESt8functionIFvRNS_16InferenceContextEEE
libonnx.so:_ZN4onnx8OpSchema4AttrENS0_9AttributeE
libonnx.so:_ZN4onnx8OpSchema4AttrENSt7__cxx1112basic_stringIcSt11char_traitsIcESaIcEEES6_NS_28AttributeProto_AttributeTypeERKNS_10GraphProtoE
libonnx.so:_ZN4onnx8OpSchema4AttrENSt7__cxx1112basic_stringIcSt11char_traitsIcESaIcEEES6_NS_28AttributeProto_AttributeTypeERKNS_11TensorProtoE
libonnx.so:_ZN4onnx8OpSchema4AttrENSt7__cxx1112basic_stringIcSt11char_traitsIcESaIcEEES6_NS_28AttributeProto_AttributeTypeERKS6_
libonnx.so:_ZN4onnx8OpSchema4AttrENSt7__cxx1112basic_stringIcSt11char_traitsIcESaIcEEES6_NS_28AttributeProto_AttributeTypeERKSt6vectorINS_10GraphProtoESaIS9_EE
libonnx.so:_ZN4onnx8OpSchema4AttrENSt7__cxx1112basic_stringIcSt11char_traitsIcESaIcEEES6_NS_28AttributeProto_AttributeTypeERKSt6vectorINS_11TensorProtoESaIS9_EE
libonnx.so:_ZN4onnx8OpSchema4AttrENSt7__cxx1112basic_stringIcSt11char_traitsIcESaIcEEES6_NS_28AttributeProto_AttributeTypeERKSt6vectorIS6_SaIS6_EE
libonnx.so:_ZN4onnx8OpSchema4AttrENSt7__cxx1112basic_stringIcSt11char_traitsIcESaIcEEES6_NS_28AttributeProto_AttributeTypeERKSt6vectorIfSaIfEE
libonnx.so:_ZN4onnx8OpSchema4AttrENSt7__cxx1112basic_stringIcSt11char_traitsIcESaIcEEES6_NS_28AttributeProto_AttributeTypeERKSt6vectorIlSaIlEE
libonnx.so:_ZN4onnx8OpSchema4AttrENSt7__cxx1112basic_stringIcSt11char_traitsIcESaIcEEES6_NS_28AttributeProto_AttributeTypeERKf
libonnx.so:_ZN4onnx8OpSchema4AttrENSt7__cxx1112basic_stringIcSt11char_traitsIcESaIcEEES6_NS_28AttributeProto_AttributeTypeERKl
libonnx.so:_ZN4onnx8OpSchema4AttrENSt7__cxx1112basic_stringIcSt11char_traitsIcESaIcEEES6_NS_28AttributeProto_AttributeTypeEb
libonnx.so:_ZN4onnx8OpSchema4AttrEPKcS2_NS_28AttributeProto_AttributeTypeERKNSt7__cxx1112basic_stringIcSt11char_traitsIcESaIcEEE
libonnx.so:_ZN4onnx8OpSchema4AttrEPKcS2_NS_28AttributeProto_AttributeTypeERKf
libonnx.so:_ZN4onnx8OpSchema4AttrEPKcS2_NS_28AttributeProto_AttributeTypeERKl
libonnx.so:_ZN4onnx8OpSchema4AttrEPKcS2_NS_28AttributeProto_AttributeTypeEb
libonnx.so:_ZN4onnx8OpSchema5InputEiNSt7__cxx1112basic_stringIcSt11char_traitsIcESaIcEEES6_S6_NS0_21FormalParameterOptionE
libonnx.so:_ZN4onnx8OpSchema5InputEiPKcS2_S2_NS0_21FormalParameterOptionE
libonnx.so:_ZN4onnx8OpSchema6OutputEiNSt7__cxx1112basic_stringIcSt11char_traitsIcESaIcEEES6_S6_NS0_21FormalParameterOptionE
libonnx.so:_ZN4onnx8OpSchema6OutputEiPKcS2_S2_NS0_21FormalParameterOptionE
libonnx.so:_ZN4onnx8OpSchema6SetDocENSt7__cxx1112basic_stringIcSt11char_traitsIcESaIcEEE
libonnx.so:_ZN4onnx8OpSchema7SetNameENSt7__cxx1112basic_stringIcSt11char_traitsIcESaIcEEE
libonnx.so:_ZN4onnx8OpSchema7SetNameEPKc
libonnx.so:_ZN4onnx8OpSchema8FinalizeEv
libonnx.so:_ZN4onnx8OpSchema9FillUsingERKSt8functionIFvRS0_EE
libonnx.so:_ZN4onnx8OpSchema9NumInputsESt3setIiSt4lessIiESaIiEE
libonnx.so:_ZN4onnx8OpSchema9SetDomainENSt7__cxx1112basic_stringIcSt11char_traitsIcESaIcEEE
libonnx.so:_ZN4onnx8OpSchema9SetDomainEPKc
libonnx.so:_ZN4onnx9BuildNodeERKNSt7__cxx1112basic_stringIcSt11char_traitsIcESaIcEEES7_S7_S7_RKSt6vectorIS5_SaIS5_EESC_PNS_9NodeProtoE
libonnx.so:_ZN4onnxlsERSoRKNS_8OpSchemaE
libonnx.so:_ZNK4onnx15FunctionBuilder16GetBuildFunctionEv
libonnx.so:_ZNK4onnx15FunctionBuilder9GetDomainB5cxx11Ev
libonnx.so:_ZNK4onnx18version_conversion23DefaultVersionConverter15convert_versionERKNS_10ModelProtoERKNS_7OpSetIDES7_
libonnx.so:_ZNK4onnx23FunctionBuilderRegistry12GetFunctionsERKNSt7__cxx1112basic_stringIcSt11char_traitsIcESaIcEEEPSt8multimapIS6_St10unique_ptrINS_13FunctionProtoESt14default_deleteISB_EESt4lessIS6_ESaISt4pairIS7_SE_EEE
libonnx.so:_ZNK4onnx5Utils11StringRange10StartsWithERKS1_
libonnx.so:_ZNK4onnx5Utils11StringRange4DataEv
libonnx.so:_ZNK4onnx5Utils11StringRange4FindEc
libonnx.so:_ZNK4onnx5Utils11StringRange4SizeEv
libonnx.so:_ZNK4onnx5Utils11StringRange5EmptyEv
libonnx.so:_ZNK4onnx5Utils11StringRange8EndsWithERKS1_
libonnx.so:_ZNK4onnx5Utils11StringRangeixEm
libonnx.so:_ZNK4onnx6Common6Status12ErrorMessageB5cxx11Ev
libonnx.so:_ZNK4onnx6Common6Status4CodeEv
libonnx.so:_ZNK4onnx6Common6Status4IsOKEv
libonnx.so:_ZNK4onnx6Common6Status8CategoryEv
libonnx.so:_ZNK4onnx6Common6Status8ToStringB5cxx11Ev
libonnx.so:_ZNK4onnx6Symbol8toStringEv
libonnx.so:_ZNK4onnx8OpSchema15FormalParameter10GetTypeStrB5cxx11Ev
libonnx.so:_ZNK4onnx8OpSchema15FormalParameter14GetDescriptionB5cxx11Ev
libonnx.so:_ZNK4onnx8OpSchema15FormalParameter7GetNameB5cxx11Ev
libonnx.so:_ZNK4onnx8OpSchema15FormalParameter8GetTypesB5cxx11Ev
libonnx.so:_ZNK4onnx8OpSchema15FormalParameter9GetOptionEv
libonnx.so:_ZNK4onnx8OpSchema6VerifyERKNS_9NodeProtoE
libonnx_proto.so:_ZN28protobuf_onnx_2fonnx_2eproto12InitDefaultsEv
libonnx_proto.so:_ZN28protobuf_onnx_2fonnx_2eproto14AddDescriptorsEv
libonnx_proto.so:_ZN28protobuf_onnx_2fonnx_2eproto18AddDescriptorsImplEv
libonnx_proto.so:_ZN28protobuf_onnx_2fonnx_2eproto22protobuf_RegisterTypesERKNSt7__cxx1112basic_stringIcSt11char_traitsIcESaIcEEE
libonnx_proto.so:_ZN28protobuf_onnx_2fonnx_2eproto26protobuf_AssignDescriptorsEv
libonnx_proto.so:_ZN28protobuf_onnx_2fonnx_2eproto30protobuf_AssignDescriptorsOnceEv
libonnx_proto.so:_ZN40protobuf_onnx_2fonnx_2doperators_2eproto12InitDefaultsEv
libonnx_proto.so:_ZN40protobuf_onnx_2fonnx_2doperators_2eproto14AddDescriptorsEv
libonnx_proto.so:_ZN40protobuf_onnx_2fonnx_2doperators_2eproto18AddDescriptorsImplEv
libonnx_proto.so:_ZN40protobuf_onnx_2fonnx_2doperators_2eproto22protobuf_RegisterTypesERKNSt7__cxx1112basic_stringIcSt11char_traitsIcESaIcEEE
libonnx_proto.so:_ZN40protobuf_onnx_2fonnx_2doperators_2eproto26protobuf_AssignDescriptorsEv
libonnx_proto.so:_ZN40protobuf_onnx_2fonnx_2doperators_2eproto30protobuf_AssignDescriptorsOnceEv
libonnx_proto.so:_ZN4onnx10GraphProto10SharedCtorEv
libonnx_proto.so:_ZN4onnx10GraphProto10SharedDtorEv
libonnx_proto.so:_ZN4onnx10GraphProto10descriptorEv
libonnx_proto.so:_ZN4onnx10GraphProto12InternalSwapEPS0_
libonnx_proto.so:_ZN4onnx10GraphProto16default_instanceEv
libonnx_proto.so:_ZN4onnx10GraphProto21InitAsDefaultInstanceEv
libonnx_proto.so:_ZN4onnx10GraphProto27MergePartialFromCodedStreamEPN6google8protobuf2io16CodedInputStreamE
libonnx_proto.so:_ZN4onnx10GraphProto4SwapEPS0_
libonnx_proto.so:_ZN4onnx10GraphProto5ClearEv
libonnx_proto.so:_ZN4onnx10GraphProto8CopyFromERKN6google8protobuf7MessageE
libonnx_proto.so:_ZN4onnx10GraphProto8CopyFromERKS0_
libonnx_proto.so:_ZN4onnx10GraphProto9MergeFromERKN6google8protobuf7MessageE
libonnx_proto.so:_ZN4onnx10GraphProto9MergeFromERKS0_
libonnx_proto.so:_ZN4onnx10GraphProtoC1ERKS0_
libonnx_proto.so:_ZN4onnx10GraphProtoC1Ev
libonnx_proto.so:_ZN4onnx10GraphProtoC2ERKS0_
libonnx_proto.so:_ZN4onnx10GraphProtoC2Ev
libonnx_proto.so:_ZN4onnx10GraphProtoD0Ev
libonnx_proto.so:_ZN4onnx10GraphProtoD1Ev
libonnx_proto.so:_ZN4onnx10GraphProtoD2Ev
libonnx_proto.so:_ZN4onnx10ModelProto10SharedCtorEv
libonnx_proto.so:_ZN4onnx10ModelProto10SharedDtorEv
libonnx_proto.so:_ZN4onnx10ModelProto10descriptorEv
libonnx_proto.so:_ZN4onnx10ModelProto12InternalSwapEPS0_
libonnx_proto.so:_ZN4onnx10ModelProto16default_instanceEv
libonnx_proto.so:_ZN4onnx10ModelProto21InitAsDefaultInstanceEv
libonnx_proto.so:_ZN4onnx10ModelProto27MergePartialFromCodedStreamEPN6google8protobuf2io16CodedInputStreamE
libonnx_proto.so:_ZN4onnx10ModelProto4SwapEPS0_
libonnx_proto.so:_ZN4onnx10ModelProto5ClearEv
libonnx_proto.so:_ZN4onnx10ModelProto8CopyFromERKN6google8protobuf7MessageE
libonnx_proto.so:_ZN4onnx10ModelProto8CopyFromERKS0_
libonnx_proto.so:_ZN4onnx10ModelProto9MergeFromERKN6google8protobuf7MessageE
libonnx_proto.so:_ZN4onnx10ModelProto9MergeFromERKS0_
libonnx_proto.so:_ZN4onnx10ModelProtoC1ERKS0_
libonnx_proto.so:_ZN4onnx10ModelProtoC1Ev
libonnx_proto.so:_ZN4onnx10ModelProtoC2ERKS0_
libonnx_proto.so:_ZN4onnx10ModelProtoC2Ev
libonnx_proto.so:_ZN4onnx10ModelProtoD0Ev
libonnx_proto.so:_ZN4onnx10ModelProtoD1Ev
libonnx_proto.so:_ZN4onnx10ModelProtoD2Ev
libonnx_proto.so:_ZN4onnx11TensorProto10SharedCtorEv
libonnx_proto.so:_ZN4onnx11TensorProto10SharedDtorEv
libonnx_proto.so:_ZN4onnx11TensorProto10descriptorEv
libonnx_proto.so:_ZN4onnx11TensorProto12InternalSwapEPS0_
libonnx_proto.so:_ZN4onnx11TensorProto16default_instanceEv
libonnx_proto.so:_ZN4onnx11TensorProto21InitAsDefaultInstanceEv
libonnx_proto.so:_ZN4onnx11TensorProto27MergePartialFromCodedStreamEPN6google8protobuf2io16CodedInputStreamE
libonnx_proto.so:_ZN4onnx11TensorProto4SwapEPS0_
libonnx_proto.so:_ZN4onnx11TensorProto5ClearEv
libonnx_proto.so:_ZN4onnx11TensorProto8CopyFromERKN6google8protobuf7MessageE
libonnx_proto.so:_ZN4onnx11TensorProto8CopyFromERKS0_
libonnx_proto.so:_ZN4onnx11TensorProto9MergeFromERKN6google8protobuf7MessageE
libonnx_proto.so:_ZN4onnx11TensorProto9MergeFromERKS0_
libonnx_proto.so:_ZN4onnx11TensorProtoC1ERKS0_
libonnx_proto.so:_ZN4onnx11TensorProtoC1Ev
libonnx_proto.so:_ZN4onnx11TensorProtoC2ERKS0_
libonnx_proto.so:_ZN4onnx11TensorProtoC2Ev
libonnx_proto.so:_ZN4onnx11TensorProtoD0Ev
libonnx_proto.so:_ZN4onnx11TensorProtoD1Ev
libonnx_proto.so:_ZN4onnx11TensorProtoD2Ev
libonnx_proto.so:_ZN4onnx13FunctionProto10SharedCtorEv
libonnx_proto.so:_ZN4onnx13FunctionProto10SharedDtorEv
libonnx_proto.so:_ZN4onnx13FunctionProto10clear_nodeEv
libonnx_proto.so:_ZN4onnx13FunctionProto10descriptorEv
libonnx_proto.so:_ZN4onnx13FunctionProto12InternalSwapEPS0_
libonnx_proto.so:_ZN4onnx13FunctionProto16default_instanceEv
libonnx_proto.so:_ZN4onnx13FunctionProto21InitAsDefaultInstanceEv
libonnx_proto.so:_ZN4onnx13FunctionProto27MergePartialFromCodedStreamEPN6google8protobuf2io16CodedInputStreamE
libonnx_proto.so:_ZN4onnx13FunctionProto4SwapEPS0_
libonnx_proto.so:_ZN4onnx13FunctionProto5ClearEv
libonnx_proto.so:_ZN4onnx13FunctionProto8CopyFromERKN6google8protobuf7MessageE
libonnx_proto.so:_ZN4onnx13FunctionProto8CopyFromERKS0_
libonnx_proto.so:_ZN4onnx13FunctionProto9MergeFromERKN6google8protobuf7MessageE
libonnx_proto.so:_ZN4onnx13FunctionProto9MergeFromERKS0_
libonnx_proto.so:_ZN4onnx13FunctionProtoC1ERKS0_
libonnx_proto.so:_ZN4onnx13FunctionProtoC1Ev
libonnx_proto.so:_ZN4onnx13FunctionProtoC2ERKS0_
libonnx_proto.so:_ZN4onnx13FunctionProtoC2Ev
libonnx_proto.so:_ZN4onnx13FunctionProtoD0Ev
libonnx_proto.so:_ZN4onnx13FunctionProtoD1Ev
libonnx_proto.so:_ZN4onnx13FunctionProtoD2Ev
libonnx_proto.so:_ZN4onnx13OperatorProto10SharedCtorEv
libonnx_proto.so:_ZN4onnx13OperatorProto10SharedDtorEv
libonnx_proto.so:_ZN4onnx13OperatorProto10descriptorEv
libonnx_proto.so:_ZN4onnx13OperatorProto12InternalSwapEPS0_
libonnx_proto.so:_ZN4onnx13OperatorProto16default_instanceEv
libonnx_proto.so:_ZN4onnx13OperatorProto21InitAsDefaultInstanceEv
libonnx_proto.so:_ZN4onnx13OperatorProto27MergePartialFromCodedStreamEPN6google8protobuf2io16CodedInputStreamE
libonnx_proto.so:_ZN4onnx13OperatorProto4SwapEPS0_
libonnx_proto.so:_ZN4onnx13OperatorProto5ClearEv
libonnx_proto.so:_ZN4onnx13OperatorProto8CopyFromERKN6google8protobuf7MessageE
libonnx_proto.so:_ZN4onnx13OperatorProto8CopyFromERKS0_
libonnx_proto.so:_ZN4onnx13OperatorProto9MergeFromERKN6google8protobuf7MessageE
libonnx_proto.so:_ZN4onnx13OperatorProto9MergeFromERKS0_
libonnx_proto.so:_ZN4onnx13OperatorProtoC1ERKS0_
libonnx_proto.so:_ZN4onnx13OperatorProtoC1Ev
libonnx_proto.so:_ZN4onnx13OperatorProtoC2ERKS0_
libonnx_proto.so:_ZN4onnx13OperatorProtoC2Ev
libonnx_proto.so:_ZN4onnx13OperatorProtoD0Ev
libonnx_proto.so:_ZN4onnx13OperatorProtoD1Ev
libonnx_proto.so:_ZN4onnx13OperatorProtoD2Ev
libonnx_proto.so:_ZN4onnx14AttributeProto10SharedCtorEv
libonnx_proto.so:_ZN4onnx14AttributeProto10SharedDtorEv
libonnx_proto.so:_ZN4onnx14AttributeProto10descriptorEv
libonnx_proto.so:_ZN4onnx14AttributeProto12InternalSwapEPS0_
libonnx_proto.so:_ZN4onnx14AttributeProto16default_instanceEv
libonnx_proto.so:_ZN4onnx14AttributeProto21InitAsDefaultInstanceEv
libonnx_proto.so:_ZN4onnx14AttributeProto27MergePartialFromCodedStreamEPN6google8protobuf2io16CodedInputStreamE
libonnx_proto.so:_ZN4onnx14AttributeProto4SwapEPS0_
libonnx_proto.so:_ZN4onnx14AttributeProto5ClearEv
libonnx_proto.so:_ZN4onnx14AttributeProto8CopyFromERKN6google8protobuf7MessageE
libonnx_proto.so:_ZN4onnx14AttributeProto8CopyFromERKS0_
libonnx_proto.so:_ZN4onnx14AttributeProto9MergeFromERKN6google8protobuf7MessageE
libonnx_proto.so:_ZN4onnx14AttributeProto9MergeFromERKS0_
libonnx_proto.so:_ZN4onnx14AttributeProtoC1ERKS0_
libonnx_proto.so:_ZN4onnx14AttributeProtoC1Ev
libonnx_proto.so:_ZN4onnx14AttributeProtoC2ERKS0_
libonnx_proto.so:_ZN4onnx14AttributeProtoC2Ev
libonnx_proto.so:_ZN4onnx14AttributeProtoD0Ev
libonnx_proto.so:_ZN4onnx14AttributeProtoD1Ev
libonnx_proto.so:_ZN4onnx14AttributeProtoD2Ev
libonnx_proto.so:_ZN4onnx14ValueInfoProto10SharedCtorEv
libonnx_proto.so:_ZN4onnx14ValueInfoProto10SharedDtorEv
libonnx_proto.so:_ZN4onnx14ValueInfoProto10descriptorEv
libonnx_proto.so:_ZN4onnx14ValueInfoProto12InternalSwapEPS0_
libonnx_proto.so:_ZN4onnx14ValueInfoProto16default_instanceEv
libonnx_proto.so:_ZN4onnx14ValueInfoProto21InitAsDefaultInstanceEv
libonnx_proto.so:_ZN4onnx14ValueInfoProto27MergePartialFromCodedStreamEPN6google8protobuf2io16CodedInputStreamE
libonnx_proto.so:_ZN4onnx14ValueInfoProto4SwapEPS0_
libonnx_proto.so:_ZN4onnx14ValueInfoProto5ClearEv
libonnx_proto.so:_ZN4onnx14ValueInfoProto8CopyFromERKN6google8protobuf7MessageE
libonnx_proto.so:_ZN4onnx14ValueInfoProto8CopyFromERKS0_
libonnx_proto.so:_ZN4onnx14ValueInfoProto9MergeFromERKN6google8protobuf7MessageE
libonnx_proto.so:_ZN4onnx14ValueInfoProto9MergeFromERKS0_
libonnx_proto.so:_ZN4onnx14ValueInfoProtoC1ERKS0_
libonnx_proto.so:_ZN4onnx14ValueInfoProtoC1Ev
libonnx_proto.so:_ZN4onnx14ValueInfoProtoC2ERKS0_
libonnx_proto.so:_ZN4onnx14ValueInfoProtoC2Ev
libonnx_proto.so:_ZN4onnx14ValueInfoProtoD0Ev
libonnx_proto.so:_ZN4onnx14ValueInfoProtoD1Ev
libonnx_proto.so:_ZN4onnx14ValueInfoProtoD2Ev
libonnx_proto.so:_ZN4onnx15Version_IsValidEi
libonnx_proto.so:_ZN4onnx16OperatorSetProto10SharedCtorEv
libonnx_proto.so:_ZN4onnx16OperatorSetProto10SharedDtorEv
libonnx_proto.so:_ZN4onnx16OperatorSetProto10descriptorEv
libonnx_proto.so:_ZN4onnx16OperatorSetProto12InternalSwapEPS0_
libonnx_proto.so:_ZN4onnx16OperatorSetProto16default_instanceEv
libonnx_proto.so:_ZN4onnx16OperatorSetProto21InitAsDefaultInstanceEv
libonnx_proto.so:_ZN4onnx16OperatorSetProto27MergePartialFromCodedStreamEPN6google8protobuf2io16CodedInputStreamE
libonnx_proto.so:_ZN4onnx16OperatorSetProto4SwapEPS0_
libonnx_proto.so:_ZN4onnx16OperatorSetProto5ClearEv
libonnx_proto.so:_ZN4onnx16OperatorSetProto8CopyFromERKN6google8protobuf7MessageE
libonnx_proto.so:_ZN4onnx16OperatorSetProto8CopyFromERKS0_
libonnx_proto.so:_ZN4onnx16OperatorSetProto9MergeFromERKN6google8protobuf7MessageE
libonnx_proto.so:_ZN4onnx16OperatorSetProto9MergeFromERKS0_
libonnx_proto.so:_ZN4onnx16OperatorSetProtoC1ERKS0_
libonnx_proto.so:_ZN4onnx16OperatorSetProtoC1Ev
libonnx_proto.so:_ZN4onnx16OperatorSetProtoC2ERKS0_
libonnx_proto.so:_ZN4onnx16OperatorSetProtoC2Ev
libonnx_proto.so:_ZN4onnx16OperatorSetProtoD0Ev
libonnx_proto.so:_ZN4onnx16OperatorSetProtoD1Ev
libonnx_proto.so:_ZN4onnx16OperatorSetProtoD2Ev
libonnx_proto.so:_ZN4onnx16TensorShapeProto10SharedCtorEv
libonnx_proto.so:_ZN4onnx16TensorShapeProto10SharedDtorEv
libonnx_proto.so:_ZN4onnx16TensorShapeProto10descriptorEv
libonnx_proto.so:_ZN4onnx16TensorShapeProto12InternalSwapEPS0_
libonnx_proto.so:_ZN4onnx16TensorShapeProto16default_instanceEv
libonnx_proto.so:_ZN4onnx16TensorShapeProto21InitAsDefaultInstanceEv
libonnx_proto.so:_ZN4onnx16TensorShapeProto27MergePartialFromCodedStreamEPN6google8protobuf2io16CodedInputStreamE
libonnx_proto.so:_ZN4onnx16TensorShapeProto4SwapEPS0_
libonnx_proto.so:_ZN4onnx16TensorShapeProto5ClearEv
libonnx_proto.so:_ZN4onnx16TensorShapeProto8CopyFromERKN6google8protobuf7MessageE
libonnx_proto.so:_ZN4onnx16TensorShapeProto8CopyFromERKS0_
libonnx_proto.so:_ZN4onnx16TensorShapeProto9MergeFromERKN6google8protobuf7MessageE
libonnx_proto.so:_ZN4onnx16TensorShapeProto9MergeFromERKS0_
libonnx_proto.so:_ZN4onnx16TensorShapeProtoC1ERKS0_
libonnx_proto.so:_ZN4onnx16TensorShapeProtoC1Ev
libonnx_proto.so:_ZN4onnx16TensorShapeProtoC2ERKS0_
libonnx_proto.so:_ZN4onnx16TensorShapeProtoC2Ev
libonnx_proto.so:_ZN4onnx16TensorShapeProtoD0Ev
libonnx_proto.so:_ZN4onnx16TensorShapeProtoD1Ev
libonnx_proto.so:_ZN4onnx16TensorShapeProtoD2Ev
libonnx_proto.so:_ZN4onnx16TypeProto_Tensor10SharedCtorEv
libonnx_proto.so:_ZN4onnx16TypeProto_Tensor10SharedDtorEv
libonnx_proto.so:_ZN4onnx16TypeProto_Tensor10descriptorEv
libonnx_proto.so:_ZN4onnx16TypeProto_Tensor12InternalSwapEPS0_
libonnx_proto.so:_ZN4onnx16TypeProto_Tensor16default_instanceEv
libonnx_proto.so:_ZN4onnx16TypeProto_Tensor21InitAsDefaultInstanceEv
libonnx_proto.so:_ZN4onnx16TypeProto_Tensor27MergePartialFromCodedStreamEPN6google8protobuf2io16CodedInputStreamE
libonnx_proto.so:_ZN4onnx16TypeProto_Tensor4SwapEPS0_
libonnx_proto.so:_ZN4onnx16TypeProto_Tensor5ClearEv
libonnx_proto.so:_ZN4onnx16TypeProto_Tensor8CopyFromERKN6google8protobuf7MessageE
libonnx_proto.so:_ZN4onnx16TypeProto_Tensor8CopyFromERKS0_
libonnx_proto.so:_ZN4onnx16TypeProto_Tensor9MergeFromERKN6google8protobuf7MessageE
libonnx_proto.so:_ZN4onnx16TypeProto_Tensor9MergeFromERKS0_
libonnx_proto.so:_ZN4onnx16TypeProto_TensorC1ERKS0_
libonnx_proto.so:_ZN4onnx16TypeProto_TensorC1Ev
libonnx_proto.so:_ZN4onnx16TypeProto_TensorC2ERKS0_
libonnx_proto.so:_ZN4onnx16TypeProto_TensorC2Ev
libonnx_proto.so:_ZN4onnx16TypeProto_TensorD0Ev
libonnx_proto.so:_ZN4onnx16TypeProto_TensorD1Ev
libonnx_proto.so:_ZN4onnx16TypeProto_TensorD2Ev
libonnx_proto.so:_ZN4onnx18OperatorSetIdProto10SharedCtorEv
libonnx_proto.so:_ZN4onnx18OperatorSetIdProto10SharedDtorEv
libonnx_proto.so:_ZN4onnx18OperatorSetIdProto10descriptorEv
libonnx_proto.so:_ZN4onnx18OperatorSetIdProto12InternalSwapEPS0_
libonnx_proto.so:_ZN4onnx18OperatorSetIdProto16default_instanceEv
libonnx_proto.so:_ZN4onnx18OperatorSetIdProto21InitAsDefaultInstanceEv
libonnx_proto.so:_ZN4onnx18OperatorSetIdProto27MergePartialFromCodedStreamEPN6google8protobuf2io16CodedInputStreamE
libonnx_proto.so:_ZN4onnx18OperatorSetIdProto4SwapEPS0_
libonnx_proto.so:_ZN4onnx18OperatorSetIdProto5ClearEv
libonnx_proto.so:_ZN4onnx18OperatorSetIdProto8CopyFromERKN6google8protobuf7MessageE
libonnx_proto.so:_ZN4onnx18OperatorSetIdProto8CopyFromERKS0_
libonnx_proto.so:_ZN4onnx18OperatorSetIdProto9MergeFromERKN6google8protobuf7MessageE
libonnx_proto.so:_ZN4onnx18OperatorSetIdProto9MergeFromERKS0_
libonnx_proto.so:_ZN4onnx18OperatorSetIdProtoC1ERKS0_
libonnx_proto.so:_ZN4onnx18OperatorSetIdProtoC1Ev
libonnx_proto.so:_ZN4onnx18OperatorSetIdProtoC2ERKS0_
libonnx_proto.so:_ZN4onnx18OperatorSetIdProtoC2Ev
libonnx_proto.so:_ZN4onnx18OperatorSetIdProtoD0Ev
libonnx_proto.so:_ZN4onnx18OperatorSetIdProtoD1Ev
libonnx_proto.so:_ZN4onnx18OperatorSetIdProtoD2Ev
libonnx_proto.so:_ZN4onnx18Version_descriptorEv
libonnx_proto.so:_ZN4onnx19TensorProto_Segment10SharedCtorEv
libonnx_proto.so:_ZN4onnx19TensorProto_Segment10SharedDtorEv
libonnx_proto.so:_ZN4onnx19TensorProto_Segment10descriptorEv
libonnx_proto.so:_ZN4onnx19TensorProto_Segment12InternalSwapEPS0_
libonnx_proto.so:_ZN4onnx19TensorProto_Segment16default_instanceEv
libonnx_proto.so:_ZN4onnx19TensorProto_Segment21InitAsDefaultInstanceEv
libonnx_proto.so:_ZN4onnx19TensorProto_Segment27MergePartialFromCodedStreamEPN6google8protobuf2io16CodedInputStreamE
libonnx_proto.so:_ZN4onnx19TensorProto_Segment4SwapEPS0_
libonnx_proto.so:_ZN4onnx19TensorProto_Segment5ClearEv
libonnx_proto.so:_ZN4onnx19TensorProto_Segment8CopyFromERKN6google8protobuf7MessageE
libonnx_proto.so:_ZN4onnx19TensorProto_Segment8CopyFromERKS0_
libonnx_proto.so:_ZN4onnx19TensorProto_Segment9MergeFromERKN6google8protobuf7MessageE
libonnx_proto.so:_ZN4onnx19TensorProto_Segment9MergeFromERKS0_
libonnx_proto.so:_ZN4onnx19TensorProto_SegmentC1ERKS0_
libonnx_proto.so:_ZN4onnx19TensorProto_SegmentC1Ev
libonnx_proto.so:_ZN4onnx19TensorProto_SegmentC2ERKS0_
libonnx_proto.so:_ZN4onnx19TensorProto_SegmentC2Ev
libonnx_proto.so:_ZN4onnx19TensorProto_SegmentD0Ev
libonnx_proto.so:_ZN4onnx19TensorProto_SegmentD1Ev
libonnx_proto.so:_ZN4onnx19TensorProto_SegmentD2Ev
libonnx_proto.so:_ZN4onnx22OperatorStatus_IsValidEi
libonnx_proto.so:_ZN4onnx22StringStringEntryProto10SharedCtorEv
libonnx_proto.so:_ZN4onnx22StringStringEntryProto10SharedDtorEv
libonnx_proto.so:_ZN4onnx22StringStringEntryProto10descriptorEv
libonnx_proto.so:_ZN4onnx22StringStringEntryProto12InternalSwapEPS0_
libonnx_proto.so:_ZN4onnx22StringStringEntryProto16default_instanceEv
libonnx_proto.so:_ZN4onnx22StringStringEntryProto21InitAsDefaultInstanceEv
libonnx_proto.so:_ZN4onnx22StringStringEntryProto27MergePartialFromCodedStreamEPN6google8protobuf2io16CodedInputStreamE
libonnx_proto.so:_ZN4onnx22StringStringEntryProto4SwapEPS0_
libonnx_proto.so:_ZN4onnx22StringStringEntryProto5ClearEv
libonnx_proto.so:_ZN4onnx22StringStringEntryProto8CopyFromERKN6google8protobuf7MessageE
libonnx_proto.so:_ZN4onnx22StringStringEntryProto8CopyFromERKS0_
libonnx_proto.so:_ZN4onnx22StringStringEntryProto9MergeFromERKN6google8protobuf7MessageE
libonnx_proto.so:_ZN4onnx22StringStringEntryProto9MergeFromERKS0_
libonnx_proto.so:_ZN4onnx22StringStringEntryProtoC1ERKS0_
libonnx_proto.so:_ZN4onnx22StringStringEntryProtoC1Ev
libonnx_proto.so:_ZN4onnx22StringStringEntryProtoC2ERKS0_
libonnx_proto.so:_ZN4onnx22StringStringEntryProtoC2Ev
libonnx_proto.so:_ZN4onnx22StringStringEntryProtoD0Ev
libonnx_proto.so:_ZN4onnx22StringStringEntryProtoD1Ev
libonnx_proto.so:_ZN4onnx22StringStringEntryProtoD2Ev
libonnx_proto.so:_ZN4onnx25OperatorStatus_descriptorEv
libonnx_proto.so:_ZN4onnx26TensorShapeProto_Dimension10SharedCtorEv
libonnx_proto.so:_ZN4onnx26TensorShapeProto_Dimension10SharedDtorEv
libonnx_proto.so:_ZN4onnx26TensorShapeProto_Dimension10descriptorEv
libonnx_proto.so:_ZN4onnx26TensorShapeProto_Dimension11clear_valueEv
libonnx_proto.so:_ZN4onnx26TensorShapeProto_Dimension12InternalSwapEPS0_
libonnx_proto.so:_ZN4onnx26TensorShapeProto_Dimension16default_instanceEv
libonnx_proto.so:_ZN4onnx26TensorShapeProto_Dimension21InitAsDefaultInstanceEv
libonnx_proto.so:_ZN4onnx26TensorShapeProto_Dimension27MergePartialFromCodedStreamEPN6google8protobuf2io16CodedInputStreamE
libonnx_proto.so:_ZN4onnx26TensorShapeProto_Dimension4SwapEPS0_
libonnx_proto.so:_ZN4onnx26TensorShapeProto_Dimension5ClearEv
libonnx_proto.so:_ZN4onnx26TensorShapeProto_Dimension8CopyFromERKN6google8protobuf7MessageE
libonnx_proto.so:_ZN4onnx26TensorShapeProto_Dimension8CopyFromERKS0_
libonnx_proto.so:_ZN4onnx26TensorShapeProto_Dimension9MergeFromERKN6google8protobuf7MessageE
libonnx_proto.so:_ZN4onnx26TensorShapeProto_Dimension9MergeFromERKS0_
libonnx_proto.so:_ZN4onnx26TensorShapeProto_DimensionC1ERKS0_
libonnx_proto.so:_ZN4onnx26TensorShapeProto_DimensionC1Ev
libonnx_proto.so:_ZN4onnx26TensorShapeProto_DimensionC2ERKS0_
libonnx_proto.so:_ZN4onnx26TensorShapeProto_DimensionC2Ev
libonnx_proto.so:_ZN4onnx26TensorShapeProto_DimensionD0Ev
libonnx_proto.so:_ZN4onnx26TensorShapeProto_DimensionD1Ev
libonnx_proto.so:_ZN4onnx26TensorShapeProto_DimensionD2Ev
libonnx_proto.so:_ZN4onnx28TensorProto_DataType_IsValidEi
libonnx_proto.so:_ZN4onnx31TensorProto_DataType_descriptorEv
libonnx_proto.so:_ZN4onnx36AttributeProto_AttributeType_IsValidEi
libonnx_proto.so:_ZN4onnx39AttributeProto_AttributeType_descriptorEv
libonnx_proto.so:_ZN4onnx9NodeProto10SharedCtorEv
libonnx_proto.so:_ZN4onnx9NodeProto10SharedDtorEv
libonnx_proto.so:_ZN4onnx9NodeProto10descriptorEv
libonnx_proto.so:_ZN4onnx9NodeProto12InternalSwapEPS0_
libonnx_proto.so:_ZN4onnx9NodeProto16default_instanceEv
libonnx_proto.so:_ZN4onnx9NodeProto21InitAsDefaultInstanceEv
libonnx_proto.so:_ZN4onnx9NodeProto27MergePartialFromCodedStreamEPN6google8protobuf2io16CodedInputStreamE
libonnx_proto.so:_ZN4onnx9NodeProto4SwapEPS0_
libonnx_proto.so:_ZN4onnx9NodeProto5ClearEv
libonnx_proto.so:_ZN4onnx9NodeProto8CopyFromERKN6google8protobuf7MessageE
libonnx_proto.so:_ZN4onnx9NodeProto8CopyFromERKS0_
libonnx_proto.so:_ZN4onnx9NodeProto9MergeFromERKN6google8protobuf7MessageE
libonnx_proto.so:_ZN4onnx9NodeProto9MergeFromERKS0_
libonnx_proto.so:_ZN4onnx9NodeProtoC1ERKS0_
libonnx_proto.so:_ZN4onnx9NodeProtoC1Ev
libonnx_proto.so:_ZN4onnx9NodeProtoC2ERKS0_
libonnx_proto.so:_ZN4onnx9NodeProtoC2Ev
libonnx_proto.so:_ZN4onnx9NodeProtoD0Ev
libonnx_proto.so:_ZN4onnx9NodeProtoD1Ev
libonnx_proto.so:_ZN4onnx9NodeProtoD2Ev
libonnx_proto.so:_ZN4onnx9TypeProto10SharedCtorEv
libonnx_proto.so:_ZN4onnx9TypeProto10SharedDtorEv
libonnx_proto.so:_ZN4onnx9TypeProto10descriptorEv
libonnx_proto.so:_ZN4onnx9TypeProto11clear_valueEv
libonnx_proto.so:_ZN4onnx9TypeProto12InternalSwapEPS0_
libonnx_proto.so:_ZN4onnx9TypeProto16default_instanceEv
libonnx_proto.so:_ZN4onnx9TypeProto21InitAsDefaultInstanceEv
libonnx_proto.so:_ZN4onnx9TypeProto25set_allocated_tensor_typeEPNS_16TypeProto_TensorE
libonnx_proto.so:_ZN4onnx9TypeProto27MergePartialFromCodedStreamEPN6google8protobuf2io16CodedInputStreamE
libonnx_proto.so:_ZN4onnx9TypeProto4SwapEPS0_
libonnx_proto.so:_ZN4onnx9TypeProto5ClearEv
libonnx_proto.so:_ZN4onnx9TypeProto8CopyFromERKN6google8protobuf7MessageE
libonnx_proto.so:_ZN4onnx9TypeProto8CopyFromERKS0_
libonnx_proto.so:_ZN4onnx9TypeProto9MergeFromERKN6google8protobuf7MessageE
libonnx_proto.so:_ZN4onnx9TypeProto9MergeFromERKS0_
libonnx_proto.so:_ZN4onnx9TypeProtoC1ERKS0_
libonnx_proto.so:_ZN4onnx9TypeProtoC1Ev
libonnx_proto.so:_ZN4onnx9TypeProtoC2ERKS0_
libonnx_proto.so:_ZN4onnx9TypeProtoC2Ev
libonnx_proto.so:_ZN4onnx9TypeProtoD0Ev
libonnx_proto.so:_ZN4onnx9TypeProtoD1Ev
libonnx_proto.so:_ZN4onnx9TypeProtoD2Ev
libonnx_proto.so:_ZN6google8protobuf5Arena18CreateMaybeMessageIN4onnx10GraphProtoEJEEEPT_PS1_DpOT0_
libonnx_proto.so:_ZN6google8protobuf5Arena18CreateMaybeMessageIN4onnx10ModelProtoEJEEEPT_PS1_DpOT0_
libonnx_proto.so:_ZN6google8protobuf5Arena18CreateMaybeMessageIN4onnx11TensorProtoEJEEEPT_PS1_DpOT0_
libonnx_proto.so:_ZN6google8protobuf5Arena18CreateMaybeMessageIN4onnx13FunctionProtoEJEEEPT_PS1_DpOT0_
libonnx_proto.so:_ZN6google8protobuf5Arena18CreateMaybeMessageIN4onnx13OperatorProtoEJEEEPT_PS1_DpOT0_
libonnx_proto.so:_ZN6google8protobuf5Arena18CreateMaybeMessageIN4onnx14AttributeProtoEJEEEPT_PS1_DpOT0_
libonnx_proto.so:_ZN6google8protobuf5Arena18CreateMaybeMessageIN4onnx14ValueInfoProtoEJEEEPT_PS1_DpOT0_
libonnx_proto.so:_ZN6google8protobuf5Arena18CreateMaybeMessageIN4onnx16OperatorSetProtoEJEEEPT_PS1_DpOT0_
libonnx_proto.so:_ZN6google8protobuf5Arena18CreateMaybeMessageIN4onnx16TensorShapeProtoEJEEEPT_PS1_DpOT0_
libonnx_proto.so:_ZN6google8protobuf5Arena18CreateMaybeMessageIN4onnx16TypeProto_TensorEJEEEPT_PS1_DpOT0_
libonnx_proto.so:_ZN6google8protobuf5Arena18CreateMaybeMessageIN4onnx18OperatorSetIdProtoEJEEEPT_PS1_DpOT0_
libonnx_proto.so:_ZN6google8protobuf5Arena18CreateMaybeMessageIN4onnx19TensorProto_SegmentEJEEEPT_PS1_DpOT0_
libonnx_proto.so:_ZN6google8protobuf5Arena18CreateMaybeMessageIN4onnx22StringStringEntryProtoEJEEEPT_PS1_DpOT0_
libonnx_proto.so:_ZN6google8protobuf5Arena18CreateMaybeMessageIN4onnx26TensorShapeProto_DimensionEJEEEPT_PS1_DpOT0_
libonnx_proto.so:_ZN6google8protobuf5Arena18CreateMaybeMessageIN4onnx9NodeProtoEJEEEPT_PS1_DpOT0_
libonnx_proto.so:_ZN6google8protobuf5Arena18CreateMaybeMessageIN4onnx9TypeProtoEJEEEPT_PS1_DpOT0_
libonnx_proto.so:_ZNK4onnx10GraphProto11GetMetadataEv
libonnx_proto.so:_ZNK4onnx10GraphProto12ByteSizeLongEv
libonnx_proto.so:_ZNK4onnx10GraphProto13IsInitializedEv
libonnx_proto.so:_ZNK4onnx10GraphProto13SetCachedSizeEi
libonnx_proto.so:_ZNK4onnx10GraphProto24SerializeWithCachedSizesEPN6google8protobuf2io17CodedOutputStreamE
libonnx_proto.so:_ZNK4onnx10GraphProto39InternalSerializeWithCachedSizesToArrayEbPh
libonnx_proto.so:_ZNK4onnx10ModelProto11GetMetadataEv
libonnx_proto.so:_ZNK4onnx10ModelProto12ByteSizeLongEv
libonnx_proto.so:_ZNK4onnx10ModelProto13IsInitializedEv
libonnx_proto.so:_ZNK4onnx10ModelProto13SetCachedSizeEi
libonnx_proto.so:_ZNK4onnx10ModelProto24SerializeWithCachedSizesEPN6google8protobuf2io17CodedOutputStreamE
libonnx_proto.so:_ZNK4onnx10ModelProto39InternalSerializeWithCachedSizesToArrayEbPh
libonnx_proto.so:_ZNK4onnx11TensorProto11GetMetadataEv
libonnx_proto.so:_ZNK4onnx11TensorProto12ByteSizeLongEv
libonnx_proto.so:_ZNK4onnx11TensorProto13IsInitializedEv
libonnx_proto.so:_ZNK4onnx11TensorProto13SetCachedSizeEi
libonnx_proto.so:_ZNK4onnx11TensorProto24SerializeWithCachedSizesEPN6google8protobuf2io17CodedOutputStreamE
libonnx_proto.so:_ZNK4onnx11TensorProto39InternalSerializeWithCachedSizesToArrayEbPh
libonnx_proto.so:_ZNK4onnx13FunctionProto11GetMetadataEv
libonnx_proto.so:_ZNK4onnx13FunctionProto12ByteSizeLongEv
libonnx_proto.so:_ZNK4onnx13FunctionProto13IsInitializedEv
libonnx_proto.so:_ZNK4onnx13FunctionProto13SetCachedSizeEi
libonnx_proto.so:_ZNK4onnx13FunctionProto24SerializeWithCachedSizesEPN6google8protobuf2io17CodedOutputStreamE
libonnx_proto.so:_ZNK4onnx13FunctionProto39InternalSerializeWithCachedSizesToArrayEbPh
libonnx_proto.so:_ZNK4onnx13OperatorProto11GetMetadataEv
libonnx_proto.so:_ZNK4onnx13OperatorProto12ByteSizeLongEv
libonnx_proto.so:_ZNK4onnx13OperatorProto13IsInitializedEv
libonnx_proto.so:_ZNK4onnx13OperatorProto13SetCachedSizeEi
libonnx_proto.so:_ZNK4onnx13OperatorProto24SerializeWithCachedSizesEPN6google8protobuf2io17CodedOutputStreamE
libonnx_proto.so:_ZNK4onnx13OperatorProto39InternalSerializeWithCachedSizesToArrayEbPh
libonnx_proto.so:_ZNK4onnx14AttributeProto11GetMetadataEv
libonnx_proto.so:_ZNK4onnx14AttributeProto12ByteSizeLongEv
libonnx_proto.so:_ZNK4onnx14AttributeProto13IsInitializedEv
libonnx_proto.so:_ZNK4onnx14AttributeProto13SetCachedSizeEi
libonnx_proto.so:_ZNK4onnx14AttributeProto24SerializeWithCachedSizesEPN6google8protobuf2io17CodedOutputStreamE
libonnx_proto.so:_ZNK4onnx14AttributeProto39InternalSerializeWithCachedSizesToArrayEbPh
libonnx_proto.so:_ZNK4onnx14ValueInfoProto11GetMetadataEv
libonnx_proto.so:_ZNK4onnx14ValueInfoProto12ByteSizeLongEv
libonnx_proto.so:_ZNK4onnx14ValueInfoProto13IsInitializedEv
libonnx_proto.so:_ZNK4onnx14ValueInfoProto13SetCachedSizeEi
libonnx_proto.so:_ZNK4onnx14ValueInfoProto24SerializeWithCachedSizesEPN6google8protobuf2io17CodedOutputStreamE
libonnx_proto.so:_ZNK4onnx14ValueInfoProto39InternalSerializeWithCachedSizesToArrayEbPh
libonnx_proto.so:_ZNK4onnx16OperatorSetProto11GetMetadataEv
libonnx_proto.so:_ZNK4onnx16OperatorSetProto12ByteSizeLongEv
libonnx_proto.so:_ZNK4onnx16OperatorSetProto13IsInitializedEv
libonnx_proto.so:_ZNK4onnx16OperatorSetProto13SetCachedSizeEi
libonnx_proto.so:_ZNK4onnx16OperatorSetProto24SerializeWithCachedSizesEPN6google8protobuf2io17CodedOutputStreamE
libonnx_proto.so:_ZNK4onnx16OperatorSetProto39InternalSerializeWithCachedSizesToArrayEbPh
libonnx_proto.so:_ZNK4onnx16TensorShapeProto11GetMetadataEv
libonnx_proto.so:_ZNK4onnx16TensorShapeProto12ByteSizeLongEv
libonnx_proto.so:_ZNK4onnx16TensorShapeProto13IsInitializedEv
libonnx_proto.so:_ZNK4onnx16TensorShapeProto13SetCachedSizeEi
libonnx_proto.so:_ZNK4onnx16TensorShapeProto24SerializeWithCachedSizesEPN6google8protobuf2io17CodedOutputStreamE
libonnx_proto.so:_ZNK4onnx16TensorShapeProto39InternalSerializeWithCachedSizesToArrayEbPh
libonnx_proto.so:_ZNK4onnx16TypeProto_Tensor11GetMetadataEv
libonnx_proto.so:_ZNK4onnx16TypeProto_Tensor12ByteSizeLongEv
libonnx_proto.so:_ZNK4onnx16TypeProto_Tensor13IsInitializedEv
libonnx_proto.so:_ZNK4onnx16TypeProto_Tensor13SetCachedSizeEi
libonnx_proto.so:_ZNK4onnx16TypeProto_Tensor24SerializeWithCachedSizesEPN6google8protobuf2io17CodedOutputStreamE
libonnx_proto.so:_ZNK4onnx16TypeProto_Tensor39InternalSerializeWithCachedSizesToArrayEbPh
libonnx_proto.so:_ZNK4onnx18OperatorSetIdProto11GetMetadataEv
libonnx_proto.so:_ZNK4onnx18OperatorSetIdProto12ByteSizeLongEv
libonnx_proto.so:_ZNK4onnx18OperatorSetIdProto13IsInitializedEv
libonnx_proto.so:_ZNK4onnx18OperatorSetIdProto13SetCachedSizeEi
libonnx_proto.so:_ZNK4onnx18OperatorSetIdProto24SerializeWithCachedSizesEPN6google8protobuf2io17CodedOutputStreamE
libonnx_proto.so:_ZNK4onnx18OperatorSetIdProto39InternalSerializeWithCachedSizesToArrayEbPh
libonnx_proto.so:_ZNK4onnx19TensorProto_Segment11GetMetadataEv
libonnx_proto.so:_ZNK4onnx19TensorProto_Segment12ByteSizeLongEv
libonnx_proto.so:_ZNK4onnx19TensorProto_Segment13IsInitializedEv
libonnx_proto.so:_ZNK4onnx19TensorProto_Segment13SetCachedSizeEi
libonnx_proto.so:_ZNK4onnx19TensorProto_Segment24SerializeWithCachedSizesEPN6google8protobuf2io17CodedOutputStreamE
libonnx_proto.so:_ZNK4onnx19TensorProto_Segment39InternalSerializeWithCachedSizesToArrayEbPh
libonnx_proto.so:_ZNK4onnx22StringStringEntryProto11GetMetadataEv
libonnx_proto.so:_ZNK4onnx22StringStringEntryProto12ByteSizeLongEv
libonnx_proto.so:_ZNK4onnx22StringStringEntryProto13IsInitializedEv
libonnx_proto.so:_ZNK4onnx22StringStringEntryProto13SetCachedSizeEi
libonnx_proto.so:_ZNK4onnx22StringStringEntryProto24SerializeWithCachedSizesEPN6google8protobuf2io17CodedOutputStreamE
libonnx_proto.so:_ZNK4onnx22StringStringEntryProto39InternalSerializeWithCachedSizesToArrayEbPh
libonnx_proto.so:_ZNK4onnx26TensorShapeProto_Dimension11GetMetadataEv
libonnx_proto.so:_ZNK4onnx26TensorShapeProto_Dimension12ByteSizeLongEv
libonnx_proto.so:_ZNK4onnx26TensorShapeProto_Dimension13IsInitializedEv
libonnx_proto.so:_ZNK4onnx26TensorShapeProto_Dimension13SetCachedSizeEi
libonnx_proto.so:_ZNK4onnx26TensorShapeProto_Dimension24SerializeWithCachedSizesEPN6google8protobuf2io17CodedOutputStreamE
libonnx_proto.so:_ZNK4onnx26TensorShapeProto_Dimension39InternalSerializeWithCachedSizesToArrayEbPh
libonnx_proto.so:_ZNK4onnx9NodeProto11GetMetadataEv
libonnx_proto.so:_ZNK4onnx9NodeProto12ByteSizeLongEv
libonnx_proto.so:_ZNK4onnx9NodeProto13IsInitializedEv
libonnx_proto.so:_ZNK4onnx9NodeProto13SetCachedSizeEi
libonnx_proto.so:_ZNK4onnx9NodeProto24SerializeWithCachedSizesEPN6google8protobuf2io17CodedOutputStreamE
libonnx_proto.so:_ZNK4onnx9NodeProto39InternalSerializeWithCachedSizesToArrayEbPh
libonnx_proto.so:_ZNK4onnx9TypeProto11GetMetadataEv
libonnx_proto.so:_ZNK4onnx9TypeProto12ByteSizeLongEv
libonnx_proto.so:_ZNK4onnx9TypeProto13IsInitializedEv
libonnx_proto.so:_ZNK4onnx9TypeProto13SetCachedSizeEi
libonnx_proto.so:_ZNK4onnx9TypeProto24SerializeWithCachedSizesEPN6google8protobuf2io17CodedOutputStreamE
libonnx_proto.so:_ZNK4onnx9TypeProto39InternalSerializeWithCachedSizesToArrayEbPh
libonnxifi_dummy.so:onnxGetBackendCompatibility
libonnxifi_dummy.so:onnxGetBackendIDs
libonnxifi_dummy.so:onnxGetBackendInfo
libonnxifi_dummy.so:onnxGetEventState
libonnxifi_dummy.so:onnxInitBackend
libonnxifi_dummy.so:onnxInitEvent
libonnxifi_dummy.so:onnxInitGraph
libonnxifi_dummy.so:onnxReleaseBackend
libonnxifi_dummy.so:onnxReleaseBackendID
libonnxifi_dummy.so:onnxReleaseEvent
libonnxifi_dummy.so:onnxReleaseGraph
libonnxifi_dummy.so:onnxRunGraph
libonnxifi_dummy.so:onnxSetGraphIO
libonnxifi_dummy.so:onnxSignalEvent
libonnxifi_dummy.so:onnxWaitEvent
